; Function Attrs: nounwind uwtable
define noundef ptr @Llb_Nonlin4CreateCube1(ptr noundef readonly captures(none) %0, ptr noundef readonly captures(none) %1) local_unnamed_addr #2 {
  %3 = load ptr, ptr %0, align 8, !tbaa !28
  %4 = getelementptr inbounds nuw i8, ptr %3, i64 752
  %5 = load i64, ptr %4, align 8, !tbaa !30
  store i64 0, ptr %4, align 8, !tbaa !30
  %6 = tail call ptr @Cudd_ReadOne(ptr noundef %3) #14
  tail call void @Cudd_Ref(ptr noundef %6) #14
  %7 = getelementptr inbounds nuw i8, ptr %1, i64 16
  %8 = load ptr, ptr %7, align 8, !tbaa !27
  %9 = getelementptr i8, ptr %8, i64 4
  %.val25 = load i32, ptr %9, align 4, !tbaa !45
  %10 = icmp sgt i32 %.val25, 0
  br i1 %10, label %.lr.ph, label %.critedge

.lr.ph:                                           ; preds = %2
  %11 = getelementptr i8, ptr %0, i64 32
  br label %12

12:                                               ; preds = %.lr.ph, %29
  %13 = phi ptr [ %8, %.lr.ph ], [ %30, %29 ]
  %indvars.iv = phi i64 [ 0, %.lr.ph ], [ %indvars.iv.next, %29 ]
  %.027 = phi ptr [ %6, %.lr.ph ], [ %.1, %29 ]
  %14 = getelementptr i8, ptr %13, i64 8
  %.val23 = load ptr, ptr %14, align 8, !tbaa !19
  %15 = getelementptr inbounds nuw i32, ptr %.val23, i64 %indvars.iv
  %16 = load i32, ptr %15, align 4, !tbaa !46
  %.val24 = load ptr, ptr %11, align 8, !tbaa !3
  %17 = sext i32 %16 to i64
  %18 = getelementptr inbounds ptr, ptr %.val24, i64 %17
  %19 = load ptr, ptr %18, align 8, !tbaa !16
  %20 = getelementptr inbounds nuw i8, ptr %19, i64 8
  %21 = load ptr, ptr %20, align 8, !tbaa !18
  %22 = getelementptr i8, ptr %21, i64 4
  %.val22 = load i32, ptr %22, align 4, !tbaa !45
  %.not = icmp eq i32 %.val22, 1
  br i1 %.not, label %23, label %29

23:                                               ; preds = %12
  %24 = load ptr, ptr %0, align 8, !tbaa !28
  %25 = load i32, ptr %19, align 8, !tbaa !14
  %26 = tail call ptr @Cudd_bddIthVar(ptr noundef %24, i32 noundef %25) #14
  %27 = tail call ptr @Cudd_bddAnd(ptr noundef %24, ptr noundef %.027, ptr noundef %26) #14
  tail call void @Cudd_Ref(ptr noundef %27) #14
  %28 = load ptr, ptr %0, align 8, !tbaa !28
  tail call void @Cudd_RecursiveDeref(ptr noundef %28, ptr noundef %.027) #14
  %.pre = load ptr, ptr %7, align 8, !tbaa !27
  br label %29

29:                                               ; preds = %12, %23
  %30 = phi ptr [ %13, %12 ], [ %.pre, %23 ]
  %.1 = phi ptr [ %.027, %12 ], [ %27, %23 ]
  %indvars.iv.next = add nuw nsw i64 %indvars.iv, 1
  %31 = getelementptr i8, ptr %30, i64 4
  %.val = load i32, ptr %31, align 4, !tbaa !45
  %32 = sext i32 %.val to i64
  %33 = icmp slt i64 %indvars.iv.next, %32
  br i1 %33, label %12, label %.critedge, !llvm.loop !47

.critedge:                                        ; preds = %29, %2
  %.0.lcssa = phi ptr [ %6, %2 ], [ %.1, %29 ]
  tail call void @Cudd_Deref(ptr noundef %.0.lcssa) #14
  %34 = load ptr, ptr %0, align 8, !tbaa !28
  %35 = getelementptr inbounds nuw i8, ptr %34, i64 752
  store i64 %5, ptr %35, align 8, !tbaa !30
  ret ptr %.0.lcssa
}